target datalayout = "e-m:e-p270:32:32-p271:32:32-p272:64:64-i64:64-i128:128-f80:128-n8:16:32:64-S128"
target triple = "x86_64-pc-linux-gnu"

; Function Attrs: nounwind sspstrong uwtable
define internal void @buffer_size_check(ptr noundef %0, ptr noundef %1, i64 noundef %2, ptr noundef %3) #0 {
  %5 = alloca ptr, align 8
  %6 = alloca ptr, align 8
  %7 = alloca i64, align 8
  %8 = alloca ptr, align 8
  %9 = alloca ptr, align 8
  %10 = alloca i64, align 8
  store ptr %0, ptr %5, align 8, !tbaa !7
  store ptr %1, ptr %6, align 8, !tbaa !7
  store i64 %2, ptr %7, align 8, !tbaa !12
  store ptr %3, ptr %8, align 8, !tbaa !14
  %11 = load ptr, ptr %5, align 8, !tbaa !7
  %12 = icmp ne ptr %11, null
  br i1 %12, label %29, label %13

13:                                               ; preds = %4
  call void @llvm.lifetime.start.p0(i64 8, ptr %9) #17
  %14 = load ptr, ptr %6, align 8, !tbaa !7
  %15 = load i64, ptr %7, align 8, !tbaa !12
  %16 = sub i64 0, %15
  %17 = getelementptr i8, ptr %14, i64 %16
  store ptr %17, ptr %9, align 8, !tbaa !7
  call void @llvm.lifetime.start.p0(i64 8, ptr %10) #17
  br i1 false, label %18, label %21

18:                                               ; preds = %13
  %19 = load i64, ptr %7, align 8, !tbaa !12
  %20 = call i1 @llvm.is.constant.i64(i64 %19)
  br label %21

21:                                               ; preds = %18, %13
  %22 = phi i1 [ false, %13 ], [ %20, %18 ]
  %23 = select i1 %22, ptr @rb_enc_str_new_static, ptr @rb_enc_str_new
  %24 = load ptr, ptr %9, align 8, !tbaa !7
  %25 = load i64, ptr %7, align 8, !tbaa !12
  %26 = load ptr, ptr %8, align 8, !tbaa !14
  %27 = call i64 %23(ptr noundef %24, i64 noundef %25, ptr noundef %26)
  store i64 %27, ptr %10, align 8, !tbaa !12
  %28 = load i64, ptr %10, align 8, !tbaa !12
  call void @rb_syserr_fail_str(i32 noundef 34, i64 noundef %28) #22
  unreachable

29:                                               ; preds = %4
  ret void
}