; Function Attrs: nounwind sspstrong uwtable
define internal fastcc void @buffer_size_check(ptr noundef readnone captures(address_is_null) %0, ptr noundef %1, i64 noundef range(i64 1, 0) %2, ptr noundef %3) unnamed_addr #0 {
  %.not = icmp eq ptr %0, null
  br i1 %.not, label %5, label %9

5:                                                ; preds = %4
  %6 = sub i64 0, %2
  %7 = getelementptr i8, ptr %1, i64 %6
  %8 = tail call i64 @rb_enc_str_new(ptr noundef %7, i64 noundef %2, ptr noundef %3) #12
  tail call void @rb_syserr_fail_str(i32 noundef 34, i64 noundef %8) #14
  unreachable

9:                                                ; preds = %4
  ret void
}